; Function Attrs: mustprogress nofree norecurse nosync nounwind memory(argmem: readwrite) uwtable
define hidden void @_ZN16CorpusPropertiesC2Ev(ptr noundef nonnull align 8 captures(none) dereferenceable(2556) initializes((0, 52), (2544, 2552)) %0) unnamed_addr #0 align 2 {
  store i32 100, ptr %0, align 8
  %2 = getelementptr inbounds nuw i8, ptr %0, i64 4
  %3 = getelementptr inbounds nuw i8, ptr %0, i64 28
  tail call void @llvm.memset.p0.i64(ptr noundef nonnull align 4 dereferenceable(24) %2, i8 0, i64 24, i1 false)
  store i32 1, ptr %3, align 4
  %4 = getelementptr inbounds nuw i8, ptr %0, i64 32
  store i32 1, ptr %4, align 8
  %5 = getelementptr inbounds nuw i8, ptr %0, i64 36
  store i32 500000, ptr %5, align 4
  %6 = getelementptr inbounds nuw i8, ptr %0, i64 40
  store i32 0, ptr %6, align 8
  %7 = getelementptr inbounds nuw i8, ptr %0, i64 44
  store i32 -1, ptr %7, align 4
  %8 = getelementptr inbounds nuw i8, ptr %0, i64 48
  store i32 5489, ptr %8, align 8
  %9 = getelementptr inbounds nuw i8, ptr %0, i64 2544
  store i64 1, ptr %9, align 8
  br label %10

10:                                               ; preds = %10, %1
  %storemerge3.i.i.i = phi i64 [ 1, %1 ], [ %21, %10 ]
  %11 = add nsw i64 %storemerge3.i.i.i, -1
  %12 = getelementptr inbounds nuw [624 x i32], ptr %8, i64 0, i64 %11
  %13 = load i32, ptr %12, align 4
  %14 = lshr i32 %13, 30
  %15 = xor i32 %14, %13
  %16 = mul i32 %15, 1812433253
  %17 = trunc nuw i64 %storemerge3.i.i.i to i32
  %18 = add i32 %16, %17
  %19 = getelementptr inbounds nuw [624 x i32], ptr %8, i64 0, i64 %storemerge3.i.i.i
  store i32 %18, ptr %19, align 4
  %20 = load i64, ptr %9, align 8
  %21 = add i64 %20, 1
  store i64 %21, ptr %9, align 8
  %22 = icmp ult i64 %21, 624
  br i1 %22, label %10, label %23, !llvm.loop !5

23:                                               ; preds = %10
  %24 = getelementptr inbounds nuw i8, ptr %0, i64 1632
  %25 = load i32, ptr %24, align 8
  %26 = getelementptr inbounds nuw i8, ptr %0, i64 2540
  %27 = load i32, ptr %26, align 4
  %28 = xor i32 %27, %25
  %29 = shl i32 %28, 1
  %30 = xor i32 %29, 839999935
  %.not11.i.i.i.i = icmp slt i32 %28, 0
  %.09.i.i.i.i = select i1 %.not11.i.i.i.i, i32 %30, i32 %29
  %31 = load i32, ptr %8, align 8
  %32 = and i32 %31, -2147483648
  %33 = and i32 %.09.i.i.i.i, 2147483647
  %34 = or disjoint i32 %33, %32
  store i32 %34, ptr %8, align 8
  br label %37

35:                                               ; preds = %37
  %36 = add nuw nsw i64 %.0812.i.i.i.i, 1
  %exitcond.i.i.i.i = icmp eq i64 %36, 624
  br i1 %exitcond.i.i.i.i, label %.critedge.i.i.i.i, label %37, !llvm.loop !7

37:                                               ; preds = %35, %23
  %.0812.i.i.i.i = phi i64 [ 0, %23 ], [ %36, %35 ]
  %38 = getelementptr inbounds nuw [624 x i32], ptr %8, i64 0, i64 %.0812.i.i.i.i
  %39 = load i32, ptr %38, align 4
  %.not10.i.i.i.i = icmp eq i32 %39, 0
  br i1 %.not10.i.i.i.i, label %35, label %_ZN5boost6random23mersenne_twister_engineIjLm32ELm624ELm397ELm31ELj2567483615ELm11ELj4294967295ELm7ELj2636928640ELm15ELj4022730752ELm18ELj1812433253EEC2Ev.exit

.critedge.i.i.i.i:                                ; preds = %35
  store i32 -2147483648, ptr %8, align 8
  br label %_ZN5boost6random23mersenne_twister_engineIjLm32ELm624ELm397ELm31ELj2567483615ELm11ELj4294967295ELm7ELj2636928640ELm15ELj4022730752ELm18ELj1812433253EEC2Ev.exit

_ZN5boost6random23mersenne_twister_engineIjLm32ELm624ELm397ELm31ELj2567483615ELm11ELj4294967295ELm7ELj2636928640ELm15ELj4022730752ELm18ELj1812433253EEC2Ev.exit: ; preds = %37, %.critedge.i.i.i.i
  %40 = getelementptr inbounds nuw i8, ptr %0, i64 2552
  store i32 0, ptr %40, align 8
  ret void
}